; Function Attrs: null_pointer_is_valid sspstrong uwtable
define internal i32 @rs_pgo_dissect_key_transfer_rqst(ptr noundef %0, i32 noundef %1, ptr noundef %2, ptr noundef %3, ptr noundef %4, ptr noundef %5) #0 {
  %7 = alloca ptr, align 8
  %8 = alloca i8, align 1
  %9 = alloca ptr, align 8
  %10 = alloca i32, align 4
  %11 = getelementptr inbounds nuw i8, ptr %4, i64 25
  %12 = load i8, ptr %11, align 1, !range !6, !noundef !7
  %13 = trunc nuw i8 %12 to i1
  br i1 %13, label %54, label %14

14:                                               ; preds = %6
  %15 = add i32 %1, 4
  call void @llvm.lifetime.start.p0(i64 8, ptr nonnull %9) #3
  store ptr null, ptr %9, align 8
  call void @llvm.lifetime.start.p0(i64 4, ptr nonnull %10) #3
  %.not.i = icmp eq ptr %3, null
  br i1 %.not.i, label %dissect_sec_rgy_domain_t.exit, label %16

16:                                               ; preds = %14
  %17 = load i32, ptr @ett_sec_rgy_domain_t, align 4
  %18 = call ptr @proto_tree_add_subtree(ptr noundef nonnull %3, ptr noundef %0, i32 noundef %15, i32 noundef -1, i32 noundef %17, ptr noundef nonnull %9, ptr noundef nonnull @.str.49)
  br label %dissect_sec_rgy_domain_t.exit

dissect_sec_rgy_domain_t.exit:                    ; preds = %14, %16
  %.017.i = phi ptr [ %18, %16 ], [ null, %14 ]
  %19 = load i32, ptr @hf_sec_rgy_domain_t, align 4
  %20 = call i32 @dissect_ndr_uint32(ptr noundef %0, i32 noundef %15, ptr noundef %2, ptr noundef %.017.i, ptr noundef %4, ptr noundef %5, i32 noundef %19, ptr noundef nonnull %10)
  %21 = getelementptr inbounds nuw i8, ptr %2, i64 8
  %22 = load ptr, ptr %21, align 8
  %23 = load i32, ptr %10, align 4
  call void (ptr, i32, ptr, ...) @col_append_fstr(ptr noundef %22, i32 noundef 25, ptr noundef nonnull @.str.50, i32 noundef %23)
  %24 = load ptr, ptr %9, align 8
  %25 = sub i32 %20, %15
  call void @proto_item_set_len(ptr noundef %24, i32 noundef %25)
  call void @llvm.lifetime.end.p0(i64 4, ptr nonnull %10) #3
  call void @llvm.lifetime.end.p0(i64 8, ptr nonnull %9) #3
  call void @llvm.lifetime.start.p0(i64 8, ptr nonnull %7) #3
  store ptr null, ptr %7, align 8
  call void @llvm.lifetime.start.p0(i64 1, ptr nonnull %8) #3
  %26 = load i8, ptr %11, align 1, !range !6, !noundef !7
  %27 = trunc nuw i8 %26 to i1
  br i1 %27, label %dissect_rs_pgo_query_t.exit, label %28

28:                                               ; preds = %dissect_sec_rgy_domain_t.exit
  br i1 %.not.i, label %32, label %29

29:                                               ; preds = %28
  %30 = load i32, ptr @ett_rs_pgo_query_t, align 4
  %31 = call ptr @proto_tree_add_subtree(ptr noundef nonnull %3, ptr noundef %0, i32 noundef %20, i32 noundef -1, i32 noundef %30, ptr noundef nonnull %7, ptr noundef nonnull @.str.95)
  br label %32

32:                                               ; preds = %29, %28
  %.023.i = phi ptr [ %31, %29 ], [ null, %28 ]
  %33 = load i32, ptr @hf_rs_pgo_query_t, align 4
  %34 = call i32 @dissect_ndr_uint8(ptr noundef %0, i32 noundef %20, ptr noundef %2, ptr noundef %.023.i, ptr noundef %4, ptr noundef %5, i32 noundef %33, ptr noundef nonnull %8)
  %35 = load ptr, ptr %21, align 8
  call void @col_append_str(ptr noundef %35, i32 noundef 25, ptr noundef nonnull @.str.96)
  %36 = load i8, ptr %8, align 1
  switch i8 %36, label %47 [
    i8 0, label %37
    i8 1, label %39
    i8 2, label %41
    i8 3, label %43
    i8 4, label %45
  ]

37:                                               ; preds = %32
  %38 = load ptr, ptr %21, align 8
  call void @col_append_str(ptr noundef %38, i32 noundef 25, ptr noundef nonnull @.str.79)
  br label %50

39:                                               ; preds = %32
  %40 = load ptr, ptr %21, align 8
  call void @col_append_str(ptr noundef %40, i32 noundef 25, ptr noundef nonnull @.str.80)
  br label %50

41:                                               ; preds = %32
  %42 = load ptr, ptr %21, align 8
  call void @col_append_str(ptr noundef %42, i32 noundef 25, ptr noundef nonnull @.str.81)
  br label %50

43:                                               ; preds = %32
  %44 = load ptr, ptr %21, align 8
  call void @col_append_str(ptr noundef %44, i32 noundef 25, ptr noundef nonnull @.str.82)
  br label %50

45:                                               ; preds = %32
  %46 = load ptr, ptr %21, align 8
  call void @col_append_str(ptr noundef %46, i32 noundef 25, ptr noundef nonnull @.str.83)
  br label %50

47:                                               ; preds = %32
  %48 = zext i8 %36 to i32
  %49 = load ptr, ptr %21, align 8
  call void (ptr, i32, ptr, ...) @col_append_fstr(ptr noundef %49, i32 noundef 25, ptr noundef nonnull @.str.84, i32 noundef %48)
  br label %50

50:                                               ; preds = %47, %45, %43, %41, %39, %37
  %51 = load ptr, ptr %7, align 8
  %52 = sub i32 %34, %20
  call void @proto_item_set_len(ptr noundef %51, i32 noundef %52)
  br label %dissect_rs_pgo_query_t.exit

dissect_rs_pgo_query_t.exit:                      ; preds = %dissect_sec_rgy_domain_t.exit, %50
  %.0.i23 = phi i32 [ %34, %50 ], [ %20, %dissect_sec_rgy_domain_t.exit ]
  call void @llvm.lifetime.end.p0(i64 1, ptr nonnull %8) #3
  call void @llvm.lifetime.end.p0(i64 8, ptr nonnull %7) #3
  %53 = call i32 @dissect_ndr_pointer(ptr noundef %0, i32 noundef %.0.i23, ptr noundef %2, ptr noundef %3, ptr noundef %4, ptr noundef %5, ptr noundef nonnull @dissect_rs_pgo_query_key_t, i32 noundef 1, ptr noundef nonnull @.str.74, i32 noundef -1)
  br label %54

54:                                               ; preds = %6, %dissect_rs_pgo_query_t.exit
  %.0 = phi i32 [ %53, %dissect_rs_pgo_query_t.exit ], [ %1, %6 ]
  ret i32 %.0
}